target datalayout = "e-m:e-p270:32:32-p271:32:32-p272:64:64-i64:64-i128:128-f80:128-n8:16:32:64-S128"
target triple = "x86_64-pc-linux-gnu"

%struct.LibraryInfo = type { ptr, i32 }

; Function Attrs: inlinehint nounwind uwtable
define internal i32 @pg_cmp_s32(i32 noundef %0, i32 noundef %1) #6 {
  %3 = alloca i32, align 4
  %4 = alloca i32, align 4
  store i32 %0, ptr %3, align 4
  store i32 %1, ptr %4, align 4
  %5 = load i32, ptr %3, align 4
  %6 = load i32, ptr %4, align 4
  %7 = icmp sgt i32 %5, %6
  %8 = zext i1 %7 to i32
  %9 = load i32, ptr %3, align 4
  %10 = load i32, ptr %4, align 4
  %11 = icmp slt i32 %9, %10
  %12 = zext i1 %11 to i32
  %13 = sub i32 %8, %12
  ret i32 %13
}

; Function Attrs: inlinehint nounwind uwtable
define internal i32 @pg_cmp_size(i64 noundef %0, i64 noundef %1) #6 {
  %3 = alloca i64, align 8
  %4 = alloca i64, align 8
  store i64 %0, ptr %3, align 8
  store i64 %1, ptr %4, align 8
  %5 = load i64, ptr %3, align 8
  %6 = load i64, ptr %4, align 8
  %7 = icmp ugt i64 %5, %6
  %8 = zext i1 %7 to i32
  %9 = load i64, ptr %3, align 8
  %10 = load i64, ptr %4, align 8
  %11 = icmp ult i64 %9, %10
  %12 = zext i1 %11 to i32
  %13 = sub i32 %8, %12
  ret i32 %13
}

; Function Attrs: nounwind uwtable
define internal i32 @library_name_compare(ptr noundef %0, ptr noundef %1) #0 {
  %3 = alloca i32, align 4
  %4 = alloca ptr, align 8
  %5 = alloca ptr, align 8
  %6 = alloca ptr, align 8
  %7 = alloca ptr, align 8
  %8 = alloca i64, align 8
  %9 = alloca i64, align 8
  %10 = alloca i32, align 4
  %11 = alloca i32, align 4
  store ptr %0, ptr %4, align 8
  store ptr %1, ptr %5, align 8
  call void @llvm.lifetime.start.p0(i64 8, ptr %6) #7
  %12 = load ptr, ptr %4, align 8
  %13 = getelementptr inbounds nuw %struct.LibraryInfo, ptr %12, i32 0, i32 0
  %14 = load ptr, ptr %13, align 8
  store ptr %14, ptr %6, align 8
  call void @llvm.lifetime.start.p0(i64 8, ptr %7) #7
  %15 = load ptr, ptr %5, align 8
  %16 = getelementptr inbounds nuw %struct.LibraryInfo, ptr %15, i32 0, i32 0
  %17 = load ptr, ptr %16, align 8
  store ptr %17, ptr %7, align 8
  call void @llvm.lifetime.start.p0(i64 8, ptr %8) #7
  %18 = load ptr, ptr %6, align 8
  %19 = call i64 @strlen(ptr noundef %18) #8
  store i64 %19, ptr %8, align 8
  call void @llvm.lifetime.start.p0(i64 8, ptr %9) #7
  %20 = load ptr, ptr %7, align 8
  %21 = call i64 @strlen(ptr noundef %20) #8
  store i64 %21, ptr %9, align 8
  call void @llvm.lifetime.start.p0(i64 4, ptr %10) #7
  %22 = load ptr, ptr %6, align 8
  %23 = load ptr, ptr %7, align 8
  %24 = call i32 @strcmp(ptr noundef %22, ptr noundef %23) #8
  store i32 %24, ptr %10, align 4
  %25 = load i64, ptr %8, align 8
  %26 = load i64, ptr %9, align 8
  %27 = icmp ne i64 %25, %26
  br i1 %27, label %28, label %32

28:                                               ; preds = %2
  %29 = load i64, ptr %8, align 8
  %30 = load i64, ptr %9, align 8
  %31 = call i32 @pg_cmp_size(i64 noundef %29, i64 noundef %30)
  store i32 %31, ptr %3, align 4
  store i32 1, ptr %11, align 4
  br label %45

32:                                               ; preds = %2
  %33 = load i32, ptr %10, align 4
  %34 = icmp ne i32 %33, 0
  br i1 %34, label %35, label %37

35:                                               ; preds = %32
  %36 = load i32, ptr %10, align 4
  store i32 %36, ptr %3, align 4
  store i32 1, ptr %11, align 4
  br label %45

37:                                               ; preds = %32
  %38 = load ptr, ptr %4, align 8
  %39 = getelementptr inbounds nuw %struct.LibraryInfo, ptr %38, i32 0, i32 1
  %40 = load i32, ptr %39, align 8
  %41 = load ptr, ptr %5, align 8
  %42 = getelementptr inbounds nuw %struct.LibraryInfo, ptr %41, i32 0, i32 1
  %43 = load i32, ptr %42, align 8
  %44 = call i32 @pg_cmp_s32(i32 noundef %40, i32 noundef %43)
  store i32 %44, ptr %3, align 4
  store i32 1, ptr %11, align 4
  br label %45

45:                                               ; preds = %37, %35, %28
  call void @llvm.lifetime.end.p0(i64 4, ptr %10) #7
  call void @llvm.lifetime.end.p0(i64 8, ptr %9) #7
  call void @llvm.lifetime.end.p0(i64 8, ptr %8) #7
  call void @llvm.lifetime.end.p0(i64 8, ptr %7) #7
  call void @llvm.lifetime.end.p0(i64 8, ptr %6) #7
  %46 = load i32, ptr %3, align 4
  ret i32 %46
}