; Function Attrs: mustprogress nofree nounwind willreturn memory(read, inaccessiblemem: none) uwtable
define internal i32 @library_name_compare(ptr noundef readonly captures(none) %0, ptr noundef readonly captures(none) %1) #3 {
  %3 = load ptr, ptr %0, align 8
  %4 = load ptr, ptr %1, align 8
  %5 = tail call i64 @strlen(ptr noundef nonnull dereferenceable(1) %3) #10
  %6 = tail call i64 @strlen(ptr noundef nonnull dereferenceable(1) %4) #10
  %.not = icmp eq i64 %5, %6
  br i1 %.not, label %9, label %7

7:                                                ; preds = %2
  %8 = tail call range(i32 -1, 2) i32 @llvm.ucmp.i32.i64(i64 %5, i64 %6)
  br label %17

9:                                                ; preds = %2
  %10 = tail call i32 @strcmp(ptr noundef nonnull dereferenceable(1) %3, ptr noundef nonnull dereferenceable(1) %4) #10
  %.not17 = icmp eq i32 %10, 0
  br i1 %.not17, label %11, label %17

11:                                               ; preds = %9
  %12 = getelementptr inbounds nuw i8, ptr %0, i64 8
  %13 = load i32, ptr %12, align 8
  %14 = getelementptr inbounds nuw i8, ptr %1, i64 8
  %15 = load i32, ptr %14, align 8
  %16 = tail call range(i32 -1, 2) i32 @llvm.scmp.i32.i32(i32 %13, i32 %15)
  br label %17

17:                                               ; preds = %9, %11, %7
  %.0 = phi i32 [ %8, %7 ], [ %16, %11 ], [ %10, %9 ]
  ret i32 %.0
}